(dp0
S'METTS MARK'
p1
(dp2
S'to_messages'
p3
I807
sS'deferral_payments'
p4
S'NaN'
p5
sS'expenses'
p6
I94299
sS'poi'
p7
I00
sS'deferred_income'
p8
g5
sS'email_address'
p9
S'mark.metts@enron.com'
p10
sS'long_term_incentive'
p11
g5
sS'restricted_stock_deferred'
p12
g5
sS'shared_receipt_with_poi'
p13
I702
sS'loan_advances'
p14
g5
sS'from_messages'
p15
I29
sS'other'
p16
I1740
sS'communicationWithPoi'
p17
I741
sS'director_fees'
p18
g5
sS'bonus'
p19
I600000
sS'total_stock_value'
p20
I585062
sS'communicationRatio'
p21
F0.46987951807228917
sS'from_poi_to_this_person'
p22
I38
sS'from_this_person_to_poi'
p23
I1
sS'restricted_stock'
p24
I585062
sS'salary'
p25
I365788
sS'nonSalary'
p26
I2927990
sS'total_payments'
p27
I1061827
sS'exercised_stock_options'
p28
g5
sS'nonSalaryRatio'
p29
F0.8889457638007175
ssS'BAXTER JOHN C'
p30
(dp31
g3
g5
sg4
I1295738
sg6
I11200
sg7
I00
sg8
I-1386055
sg9
g5
sg11
I1586055
sg12
g5
sg13
g5
sg14
g5
sg15
g5
sg16
I2660303
sg17
S'NaN'
p32
sg18
g5
sg19
I1200000
sg20
I10623258
sg21
g32
sg22
g5
sg23
g5
sg24
I3942714
sg25
I267102
sg26
I32248100
sg27
I5634343
sg28
I6680544
sg29
F0.9917853193715358
ssS'ELLIOTT STEVEN'
p33
(dp34
g3
g5
sg4
g5
sg6
I78552
sg7
I00
sg8
I-400729
sg9
S'steven.elliott@enron.com'
p35
sg11
g5
sg12
g5
sg13
g5
sg14
g5
sg15
g5
sg16
I12961
sg17
g32
sg18
g5
sg19
I350000
sg20
I6678735
sg21
g32
sg22
g5
sg23
g5
sg24
I1788391
sg25
I170941
sg26
I13609979
sg27
I211725
sg28
I4890344
sg29
F0.9875958208885909
ssS'CORDES WILLIAM R'
p36
(dp37
g3
I764
sg4
g5
sg6
g5
sg7
I00
sg8
g5
sg9
S'bill.cordes@enron.com'
p38
sg11
g5
sg12
g5
sg13
I58
sg14
g5
sg15
I12
sg16
g5
sg17
I68
sg18
g5
sg19
g5
sg20
I1038185
sg21
F0.08056872037914692
sg22
I10
sg23
I0
sg24
I386335
sg25
g5
sg26
I2076370
sg27
g5
sg28
I651850
sg29
g32
ssS'HANNON KEVIN P'
p39
(dp40
g3
I1045
sg4
g5
sg6
I34039
sg7
I01
sg8
I-3117011
sg9
S'kevin.hannon@enron.com'
p41
sg11
I1617011
sg12
g5
sg13
I1035
sg14
g5
sg15
I32
sg16
I11350
sg17
I1088
sg18
g5
sg19
I1500000
sg20
I6391065
sg21
F0.502540415704388
sg22
I32
sg23
I21
sg24
I853064
sg25
I243293
sg26
I13116201
sg27
I288682
sg28
I5538001
sg29
F0.9817887563705632
ssS'MORDAUNT KRISTINA M'
p42
(dp43
g3
g5
sg4
g5
sg6
I35018
sg7
I00
sg8
g5
sg9
S'kristina.mordaunt@enron.com'
p44
sg11
g5
sg12
g5
sg13
g5
sg14
g5
sg15
g5
sg16
I1411
sg17
g32
sg18
g5
sg19
I325000
sg20
I208510
sg21
g32
sg22
g5
sg23
g5
sg24
I208510
sg25
I267093
sg26
I1406971
sg27
I628522
sg28
g5
sg29
F0.8404523363503427
ssS'MEYER ROCKFORD G'
p45
(dp46
g3
I232
sg4
I1848227
sg6
g5
sg7
I00
sg8
g5
sg9
S'rockford.meyer@enron.com'
p47
sg11
g5
sg12
g5
sg13
I22
sg14
g5
sg15
I28
sg16
g5
sg17
I22
sg18
g5
sg19
g5
sg20
I955873
sg21
F0.07801418439716312
sg22
I0
sg23
I0
sg24
I462384
sg25
g5
sg26
I5608200
sg27
I1848227
sg28
I493489
sg29
g32
ssS'MCMAHON JEFFREY'
p48
(dp49
g3
I2355
sg4
g5
sg6
I137108
sg7
I00
sg8
g5
sg9
S'jeffrey.mcmahon@enron.com'
p50
sg11
I694862
sg12
g5
sg13
I2228
sg14
g5
sg15
I48
sg16
I297353
sg17
I2312
sg18
g5
sg19
I2600000
sg20
I1662855
sg21
F0.49034994697773066
sg22
I58
sg23
I26
sg24
I558801
sg25
I370448
sg26
I11154804
sg27
I4099771
sg28
I1104054
sg29
F0.9678577093151629
ssS'HORTON STANLEY C'
p51
(dp52
g3
I2350
sg4
I3131860
sg6
g5
sg7
I00
sg8
g5
sg9
S'stanley.horton@enron.com'
p53
sg11
g5
sg12
g5
sg13
I1074
sg14
g5
sg15
I1073
sg16
g5
sg17
I1133
sg18
g5
sg19
g5
sg20
I7256648
sg21
F0.24868305531167692
sg22
I44
sg23
I15
sg24
I2046079
sg25
g5
sg26
I20777016
sg27
I3131860
sg28
I5210569
sg29
g32
ssS'PIPER GREGORY F'
p54
(dp55
g3
I1238
sg4
I1130036
sg6
I43057
sg7
I00
sg8
I-33333
sg9
S'greg.piper@enron.com'
p56
sg11
g5
sg12
I-409554
sg13
I742
sg14
g5
sg15
I222
sg16
I778
sg17
I851
sg18
g5
sg19
I400000
sg20
I880290
sg21
F0.3682388576373864
sg22
I61
sg23
I48
sg24
I409554
sg25
I197091
sg26
I5448301
sg27
I1737629
sg28
I880290
sg29
F0.9650881639397229
ssS'HUMPHREY GENE E'
p57
(dp58
g3
I128
sg4
I2964506
sg6
I4994
sg7
I00
sg8
g5
sg9
S'gene.humphrey@enron.com'
p59
sg11
g5
sg12
g5
sg13
I119
sg14
g5
sg15
I17
sg16
g5
sg17
I146
sg18
g5
sg19
g5
sg20
I2282768
sg21
F0.5017182130584192
sg22
I10
sg23
I17
sg24
g5
sg25
I130724
sg26
I10635260
sg27
I3100224
sg28
I2282768
sg29
F0.9878576821217643
ssS'UMANOFF ADAM S'
p60
(dp61
g3
I111
sg4
g5
sg6
I53122
sg7
I00
sg8
g5
sg9
S'adam.umanoff@enron.com'
p62
sg11
g5
sg12
g5
sg13
I41
sg14
g5
sg15
I18
sg16
g5
sg17
I53
sg18
g5
sg19
I788750
sg20
g5
sg21
F0.29120879120879123
sg22
I12
sg23
I0
sg24
g5
sg25
I288589
sg26
I1972333
sg27
I1130461
sg28
g5
sg29
F0.8723578257011962
ssS'BLACHMAN JEREMY M'
p63
(dp64
g3
I2475
sg4
g5
sg6
I84208
sg7
I00
sg8
g5
sg9
S'jeremy.blachman@enron.com'
p65
sg11
I831809
sg12
g5
sg13
I2326
sg14
g5
sg15
I14
sg16
I272
sg17
I2353
sg18
g5
sg19
I850000
sg20
I954354
sg21
F0.48595621643948783
sg22
I25
sg23
I2
sg24
I189041
sg25
I248546
sg26
I5689832
sg27
I2014835
sg28
I765313
sg29
F0.9581458101858791
ssS'SUNDE MARTIN'
p66
(dp67
g3
I2647
sg4
g5
sg6
g5
sg7
I00
sg8
g5
sg9
S'marty.sunde@enron.com'
p68
sg11
I476451
sg12
g5
sg13
I2565
sg14
g5
sg15
I38
sg16
I111122
sg17
I2615
sg18
g5
sg19
I700000
sg20
I698920
sg21
F0.49339622641509434
sg22
I37
sg23
I13
sg24
I698920
sg25
I257486
sg26
I4230472
sg27
I1545059
sg28
g5
sg29
F0.9426273597034553
ssS'GIBBS DANA R'
p69
(dp70
g3
I169
sg4
I504610
sg6
g5
sg7
I00
sg8
g5
sg9
S'dana.gibbs@enron.com'
p71
sg11
I461912
sg12
g5
sg13
I23
sg14
g5
sg15
I12
sg16
g5
sg17
I23
sg18
g5
sg19
g5
sg20
I2218275
sg21
F0.11274509803921569
sg22
I0
sg23
I0
sg24
g5
sg25
g5
sg26
I6369594
sg27
I966522
sg28
I2218275
sg29
g32
ssS'LOWRY CHARLES P'
p72
(dp73
g3
g5
sg4
g5
sg6
g5
sg7
I00
sg8
g5
sg9
g5
sg11
g5
sg12
I-153686
sg13
g5
sg14
g5
sg15
g5
sg16
g5
sg17
g32
sg18
g5
sg19
g5
sg20
I372205
sg21
g32
sg22
g5
sg23
g5
sg24
I153686
sg25
g5
sg26
I898096
sg27
g5
sg28
I372205
sg29
g32
ssS'COLWELL WESLEY'
p74
(dp75
g3
I1758
sg4
I27610
sg6
I16514
sg7
I01
sg8
I-144062
sg9
S'wes.colwell@enron.com'
p76
sg11
g5
sg12
g5
sg13
I1132
sg14
g5
sg15
I40
sg16
I101740
sg17
I1383
sg18
g5
sg19
I1200000
sg20
I698242
sg21
F0.43476894058472176
sg22
I240
sg23
I11
sg24
I698242
sg25
I288542
sg26
I4088630
sg27
I1490344
sg28
g5
sg29
F0.9340802691783645
ssS'MULLER MARK S'
p77
(dp78
g3
I136
sg4
I842924
sg6
g5
sg7
I00
sg8
I-719000
sg9
S's..muller@enron.com'
p79
sg11
I1725545
sg12
g5
sg13
I114
sg14
g5
sg15
I16
sg16
I947
sg17
I126
sg18
g5
sg19
I1100000
sg20
I1416848
sg21
F0.45323741007194246
sg22
I12
sg23
I0
sg24
I360528
sg25
I251654
sg26
I8986182
sg27
I3202070
sg28
I1056320
sg29
F0.9727583386412142
ssS'JACKSON CHARLENE R'
p80
(dp81
g3
I258
sg4
g5
sg6
I10181
sg7
I00
sg8
g5
sg9
S'charlene.jackson@enron.com'
p82
sg11
g5
sg12
g5
sg13
I117
sg14
g5
sg15
I56
sg16
I2435
sg17
I161
sg18
g5
sg19
I250000
sg20
I725735
sg21
F0.3389473684210526
sg22
I25
sg23
I19
sg24
I540672
sg25
I288558
sg26
I2265260
sg27
I551174
sg28
I185063
sg29
F0.8870091760650133
ssS'WESTFAHL RICHARD K'
p83
(dp84
g3
g5
sg4
g5
sg6
I51870
sg7
I00
sg8
I-10800
sg9
S'dick.westfahl@enron.com'
p85
sg11
I256191
sg12
g5
sg13
g5
sg14
g5
sg15
g5
sg16
I401130
sg17
g32
sg18
g5
sg19
g5
sg20
I384930
sg21
g32
sg22
g5
sg23
g5
sg24
I384930
sg25
I63744
sg26
I2230386
sg27
I762135
sg28
g5
sg29
F0.9722143034614429
ssS'WALTERS GARETH W'
p86
(dp87
g3
g5
sg4
I53625
sg6
I33785
sg7
I00
sg8
g5
sg9
g5
sg11
g5
sg12
g5
sg13
g5
sg14
g5
sg15
g5
sg16
g5
sg17
g32
sg18
g5
sg19
g5
sg20
I1030329
sg21
g32
sg22
g5
sg23
g5
sg24
g5
sg25
g5
sg26
I2235478
sg27
I87410
sg28
I1030329
sg29
g32
ssS'WALLS JR ROBERT H'
p88
(dp89
g3
I671
sg4
g5
sg6
I50936
sg7
I00
sg8
g5
sg9
S'rob.walls@enron.com'
p90
sg11
I540751
sg12
g5
sg13
I215
sg14
g5
sg15
I146
sg16
I2
sg17
I232
sg18
g5
sg19
I850000
sg20
I5898997
sg21
F0.22116301239275502
sg22
I17
sg23
I0
sg24
I1552453
sg25
I357091
sg26
I15038463
sg27
I1798780
sg28
I4346544
sg29
F0.9768055764670761
ssS'KITCHEN LOUISE'
p91
(dp92
g3
I8305
sg4
g5
sg6
I5774
sg7
I00
sg8
g5
sg9
S'louise.kitchen@enron.com'
p93
sg11
g5
sg12
g5
sg13
I3669
sg14
g5
sg15
I1728
sg16
I93925
sg17
I4114
sg18
g5
sg19
I3100000
sg20
I547143
sg21
F0.29080370396550503
sg22
I251
sg23
I194
sg24
I466101
sg25
I271442
sg26
I7765126
sg27
I3471141
sg28
I81042
sg29
F0.966224139458535
ssS'CHAN RONNIE'
p94
(dp95
g3
g5
sg4
g5
sg6
g5
sg7
I00
sg8
I-98784
sg9
g5
sg11
g5
sg12
I-32460
sg13
g5
sg14
g5
sg15
g5
sg16
g5
sg17
g32
sg18
I98784
sg19
g5
sg20
g5
sg21
g32
sg22
g5
sg23
g5
sg24
I32460
sg25
g5
sg26
I-66324
sg27
g5
sg28
g5
sg29
g32
ssS'BELFER ROBERT'
p96
(dp97
g3
g5
sg4
I-102500
sg6
g5
sg7
I00
sg8
g5
sg9
g5
sg11
g5
sg12
I-44093
sg13
g5
sg14
g5
sg15
g5
sg16
g5
sg17
g32
sg18
I3285
sg19
g5
sg20
I-44093
sg21
g32
sg22
g5
sg23
g5
sg24
g5
sg25
g5
sg26
I-40808
sg27
I102500
sg28
I3285
sg29
g32
ssS'SHANKMAN JEFFREY A'
p98
(dp99
g3
I3221
sg4
g5
sg6
I178979
sg7
I00
sg8
g5
sg9
S'jeffrey.shankman@enron.com'
p100
sg11
I554422
sg12
g5
sg13
I1730
sg14
g5
sg15
I2681
sg16
I1191
sg17
I1907
sg18
g5
sg19
I2000000
sg20
I2072035
sg21
F0.2442054040210014
sg22
I94
sg23
I83
sg24
I630137
sg25
I304110
sg26
I9917364
sg27
I3038702
sg28
I1441898
sg29
F0.9702479309735562
ssS'WODRASKA JOHN'
p101
(dp102
g3
g5
sg4
g5
sg6
g5
sg7
I00
sg8
g5
sg9
S'john.wodraska@enron.com'
p103
sg11
g5
sg12
g5
sg13
g5
sg14
g5
sg15
g5
sg16
I189583
sg17
g32
sg18
g5
sg19
g5
sg20
g5
sg21
g32
sg22
g5
sg23
g5
sg24
g5
sg25
g5
sg26
I379166
sg27
I189583
sg28
g5
sg29
g32
ssS'BERGSIEKER RICHARD P'
p104
(dp105
g3
I383
sg4
g5
sg6
I59175
sg7
I00
sg8
I-485813
sg9
S'rick.bergsieker@enron.com'
p106
sg11
I180250
sg12
g5
sg13
I233
sg14
g5
sg15
I59
sg16
I427316
sg17
I237
sg18
g5
sg19
I250000
sg20
I659249
sg21
F0.3490427098674521
sg22
I4
sg23
I0
sg24
I659249
sg25
I187922
sg26
I2368276
sg27
I618850
sg28
g5
sg29
F0.9264837856848335
ssS'URQUHART JOHN A'
p107
(dp108
g3
g5
sg4
g5
sg6
I228656
sg7
I00
sg8
I-36666
sg9
g5
sg11
g5
sg12
g5
sg13
g5
sg14
g5
sg15
g5
sg16
g5
sg17
g32
sg18
I36666
sg19
g5
sg20
g5
sg21
g32
sg22
g5
sg23
g5
sg24
g5
sg25
g5
sg26
I420646
sg27
I228656
sg28
g5
sg29
g32
ssS'BIBI PHILIPPE A'
p109
(dp110
g3
I1607
sg4
g5
sg6
I38559
sg7
I00
sg8
g5
sg9
S'philippe.bibi@enron.com'
p111
sg11
I369721
sg12
g5
sg13
I1336
sg14
g5
sg15
I40
sg16
I425688
sg17
I1367
sg18
g5
sg19
I1000000
sg20
I1843816
sg21
F0.453550099535501
sg22
I23
sg23
I8
sg24
I378082
sg25
I213625
sg26
I7569193
sg27
I2047593
sg28
I1465734
sg29
F0.9725517158437985
ssS'RIEKER PAULA H'
p112
(dp113
g3
I1328
sg4
I214678
sg6
I33271
sg7
I01
sg8
I-100000
sg9
S'paula.rieker@enron.com'
p114
sg11
g5
sg12
g5
sg13
I1258
sg14
g5
sg15
I82
sg16
I1950
sg17
I1341
sg18
g5
sg19
I700000
sg20
I1918887
sg21
F0.48745910577971646
sg22
I35
sg23
I48
sg24
I283649
sg25
I249201
sg26
I5786773
sg27
I1099100
sg28
I1635238
sg29
F0.9587140368729222
ssS'WHALEY DAVID A'
p115
(dp116
g3
g5
sg4
g5
sg6
g5
sg7
I00
sg8
g5
sg9
g5
sg11
g5
sg12
g5
sg13
g5
sg14
g5
sg15
g5
sg16
g5
sg17
g32
sg18
g5
sg19
g5
sg20
I98718
sg21
g32
sg22
g5
sg23
g5
sg24
g5
sg25
g5
sg26
I197436
sg27
g5
sg28
I98718
sg29
g32
ssS'BECK SALLY W'
p117
(dp118
g3
I7315
sg4
g5
sg6
I37172
sg7
I00
sg8
g5
sg9
S'sally.beck@enron.com'
p119
sg11
g5
sg12
g5
sg13
I2639
sg14
g5
sg15
I4343
sg16
I566
sg17
I3169
sg18
g5
sg19
I700000
sg20
I126027
sg21
F0.21373170567208472
sg22
I144
sg23
I386
sg24
I126027
sg25
I231330
sg26
I1958860
sg27
I969068
sg28
g5
sg29
F0.894379026477155
ssS'HAUG DAVID L'
p120
(dp121
g3
I573
sg4
g5
sg6
I475
sg7
I00
sg8
g5
sg9
S'david.haug@enron.com'
p122
sg11
g5
sg12
g5
sg13
I471
sg14
g5
sg15
I19
sg16
g5
sg17
I482
sg18
g5
sg19
g5
sg20
I2217299
sg21
F0.44878957169459965
sg22
I4
sg23
I7
sg24
I2217299
sg25
g5
sg26
I4435548
sg27
I475
sg28
g5
sg29
g32
ssS'ECHOLS JOHN B'
p123
(dp124
g3
g5
sg4
g5
sg6
I21530
sg7
I00
sg8
g5
sg9
S'john.echols@enron.com'
p125
sg11
I2234774
sg12
g5
sg13
g5
sg14
g5
sg15
g5
sg16
I53775
sg17
g32
sg18
g5
sg19
I200000
sg20
I1008941
sg21
g32
sg22
g5
sg23
g5
sg24
I407503
sg25
I182245
sg26
I7220285
sg27
I2692324
sg28
I601438
sg29
F0.9753807144314174
ssS'MENDELSOHN JOHN'
p126
(dp127
g3
g5
sg4
g5
sg6
I148
sg7
I00
sg8
I-103750
sg9
g5
sg11
g5
sg12
g5
sg13
g5
sg14
g5
sg15
g5
sg16
g5
sg17
g32
sg18
I103750
sg19
g5
sg20
g5
sg21
g32
sg22
g5
sg23
g5
sg24
g5
sg25
g5
sg26
I-103454
sg27
I148
sg28
g5
sg29
g32
ssS'HICKERSON GARY J'
p128
(dp129
g3
I1320
sg4
g5
sg6
I98849
sg7
I00
sg8
g5
sg9
S'gary.hickerson@enron.com'
p130
sg11
I69223
sg12
g5
sg13
I900
sg14
g5
sg15
I27
sg16
I1936
sg17
I941
sg18
g5
sg19
I1700000
sg20
I441096
sg21
F0.4112762237762238
sg22
I40
sg23
I1
sg24
I441096
sg25
I211788
sg26
I4833996
sg27
I2081796
sg28
g5
sg29
F0.9580267407403884
ssS'CLINE KENNETH W'
p131
(dp132
g3
g5
sg4
g5
sg6
g5
sg7
I00
sg8
g5
sg9
g5
sg11
g5
sg12
I-472568
sg13
g5
sg14
g5
sg15
g5
sg16
g5
sg17
g32
sg18
g5
sg19
g5
sg20
I189518
sg21
g32
sg22
g5
sg23
g5
sg24
I662086
sg25
g5
sg26
I851604
sg27
g5
sg28
g5
sg29
g32
ssS'LEWIS RICHARD'
p133
(dp134
g3
I952
sg4
g5
sg6
g5
sg7
I00
sg8
g5
sg9
S'richard.lewis@enron.com'
p135
sg11
g5
sg12
g5
sg13
I739
sg14
g5
sg15
I26
sg16
g5
sg17
I749
sg18
g5
sg19
g5
sg20
I850477
sg21
F0.43370005790387955
sg22
I10
sg23
I0
sg24
g5
sg25
g5
sg26
I1700954
sg27
g5
sg28
I850477
sg29
g32
ssS'HAYES ROBERT E'
p136
(dp137
g3
I504
sg4
I7961
sg6
g5
sg7
I00
sg8
g5
sg9
S'robert.hayes@enron.com'
p138
sg11
g5
sg12
g5
sg13
I50
sg14
g5
sg15
I12
sg16
g5
sg17
I66
sg18
g5
sg19
g5
sg20
I151418
sg21
F0.1134020618556701
sg22
I16
sg23
I0
sg24
I151418
sg25
g5
sg26
I318758
sg27
I7961
sg28
g5
sg29
g32
ssS'MCCARTY DANNY J'
p139
(dp140
g3
I1433
sg4
g5
sg6
g5
sg7
I00
sg8
g5
sg9
S'danny.mccarty@enron.com'
p141
sg11
g5
sg12
g5
sg13
I508
sg14
g5
sg15
I215
sg16
g5
sg17
I535
sg18
g5
sg19
g5
sg20
I758931
sg21
F0.24507558405863492
sg22
I25
sg23
I2
sg24
I94556
sg25
g5
sg26
I1517862
sg27
g5
sg28
I664375
sg29
g32
ssS'KOPPER MICHAEL J'
p142
(dp143
g3
g5
sg4
g5
sg6
I118134
sg7
I01
sg8
g5
sg9
S'michael.kopper@enron.com'
p144
sg11
I602671
sg12
g5
sg13
g5
sg14
g5
sg15
g5
sg16
I907502
sg17
g32
sg18
g5
sg19
I800000
sg20
I985032
sg21
g32
sg22
g5
sg23
g5
sg24
I985032
sg25
I224305
sg26
I7050983
sg27
I2652612
sg28
g5
sg29
F0.9691689181239286
ssS'LEFF DANIEL P'
p145
(dp146
g3
I2822
sg4
g5
sg6
g5
sg7
I00
sg8
g5
sg9
S'dan.leff@enron.com'
p147
sg11
I1387399
sg12
g5
sg13
I2672
sg14
g5
sg15
I63
sg16
I3083
sg17
I2753
sg18
g5
sg19
I1000000
sg20
I360528
sg21
F0.4882937211777226
sg22
I67
sg23
I14
sg24
I360528
sg25
I273746
sg26
I5775766
sg27
I2664228
sg28
g5
sg29
F0.9547490772809443
ssS'LAVORATO JOHN J'
p148
(dp149
g3
I7259
sg4
g5
sg6
I49537
sg7
I00
sg8
g5
sg9
S'john.lavorato@enron.com'
p150
sg11
I2035380
sg12
g5
sg13
I3962
sg14
g5
sg15
I2585
sg16
I1552
sg17
I4901
sg18
g5
sg19
I8000000
sg20
I5167144
sg21
F0.33238385893523226
sg22
I528
sg23
I411
sg24
I1008149
sg25
I339288
sg26
I30846514
sg27
I10425757
sg28
I4158995
sg29
F0.989120433715317
ssS'BERBERIAN DAVID'
p151
(dp152
g3
g5
sg4
g5
sg6
I11892
sg7
I00
sg8
g5
sg9
S'david.berberian@enron.com'
p153
sg11
g5
sg12
g5
sg13
g5
sg14
g5
sg15
g5
sg16
g5
sg17
g32
sg18
g5
sg19
g5
sg20
I2493616
sg21
g32
sg22
g5
sg23
g5
sg24
I869220
sg25
I216582
sg26
I5227598
sg27
I228474
sg28
I1624396
sg29
F0.9602177003699364
ssS'DETMERING TIMOTHY J'
p154
(dp155
g3
g5
sg4
I875307
sg6
I52255
sg7
I00
sg8
I-775241
sg9
S'timothy.detmering@enron.com'
p156
sg11
I415657
sg12
I-315068
sg13
g5
sg14
g5
sg15
g5
sg16
I1105
sg17
g32
sg18
g5
sg19
I425000
sg20
I2027865
sg21
g32
sg22
g5
sg23
g5
sg24
I315068
sg25
I210500
sg26
I6569464
sg27
I1204583
sg28
I2027865
sg29
F0.9689526375066299
ssS'WAKEHAM JOHN'
p157
(dp158
g3
g5
sg4
g5
sg6
I103773
sg7
I00
sg8
g5
sg9
g5
sg11
g5
sg12
g5
sg13
g5
sg14
g5
sg15
g5
sg16
g5
sg17
g32
sg18
I109298
sg19
g5
sg20
g5
sg21
g32
sg22
g5
sg23
g5
sg24
g5
sg25
g5
sg26
I316844
sg27
I213071
sg28
g5
sg29
g32
ssS'POWERS WILLIAM'
p159
(dp160
g3
I653
sg4
g5
sg6
g5
sg7
I00
sg8
I-17500
sg9
S'ken.powers@enron.com'
p161
sg11
g5
sg12
g5
sg13
I12
sg14
g5
sg15
I26
sg16
g5
sg17
I12
sg18
I17500
sg19
g5
sg20
g5
sg21
F0.017366136034732273
sg22
I0
sg23
I0
sg24
g5
sg25
g5
sg26
I-17500
sg27
g5
sg28
g5
sg29
g32
ssS'GOLD JOSEPH'
p162
(dp163
g3
g5
sg4
g5
sg6
g5
sg7
I00
sg8
g5
sg9
S'joe.gold@enron.com'
p164
sg11
I304805
sg12
g5
sg13
g5
sg14
g5
sg15
g5
sg16
I819288
sg17
g32
sg18
g5
sg19
I750000
sg20
I877611
sg21
g32
sg22
g5
sg23
g5
sg24
I441096
sg25
I272880
sg26
I5776288
sg27
I2146973
sg28
I436515
sg29
F0.954889664165386
ssS'BANNANTINE JAMES M'
p165
(dp166
g3
I566
sg4
g5
sg6
I56301
sg7
I00
sg8
I-5104
sg9
S'james.bannantine@enron.com'
p167
sg11
g5
sg12
I-560222
sg13
I465
sg14
g5
sg15
I29
sg16
I864523
sg17
I504
sg18
g5
sg19
g5
sg20
I5243487
sg21
F0.4585987261146497
sg22
I39
sg23
I0
sg24
I1757552
sg25
I477
sg26
I12879113
sg27
I916197
sg28
I4046157
sg29
F0.9999629646595893
ssS'DUNCAN JOHN H'
p168
(dp169
g3
g5
sg4
g5
sg6
g5
sg7
I00
sg8
I-25000
sg9
g5
sg11
g5
sg12
g5
sg13
g5
sg14
g5
sg15
g5
sg16
g5
sg17
g32
sg18
I102492
sg19
g5
sg20
I371750
sg21
g32
sg22
g5
sg23
g5
sg24
g5
sg25
g5
sg26
I795992
sg27
I77492
sg28
I371750
sg29
g32
ssS'SHAPIRO RICHARD S'
p170
(dp171
g3
I15149
sg4
g5
sg6
I137767
sg7
I00
sg8
g5
sg9
S'richard.shapiro@enron.com'
p172
sg11
g5
sg12
g5
sg13
I4527
sg14
g5
sg15
I1215
sg16
I705
sg17
I4666
sg18
g5
sg19
I650000
sg20
I987001
sg21
F0.22187351402757965
sg22
I74
sg23
I65
sg24
I379164
sg25
I269076
sg26
I3820022
sg27
I1057548
sg28
I607837
sg29
F0.9341967348300285
ssS'SHERRIFF JOHN R'
p173
(dp174
g3
I3187
sg4
g5
sg6
g5
sg7
I00
sg8
g5
sg9
S'john.sherriff@enron.com'
p175
sg11
I554422
sg12
g5
sg13
I2103
sg14
g5
sg15
I92
sg16
I1852186
sg17
I2154
sg18
g5
sg19
I1500000
sg20
I3128982
sg21
F0.3964660408614025
sg22
I28
sg23
I23
sg24
I1293424
sg25
I428780
sg26
I14499960
sg27
I4335388
sg28
I1835558
sg29
F0.9712782190593446
ssS'SHELBY REX'
p176
(dp177
g3
I225
sg4
g5
sg6
I22884
sg7
I01
sg8
I-4167
sg9
S'rex.shelby@enron.com'
p178
sg11
g5
sg12
g5
sg13
I91
sg14
g5
sg15
I39
sg16
I1573324
sg17
I118
sg18
g5
sg19
I200000
sg20
I2493616
sg21
F0.3089005235602094
sg22
I13
sg23
I14
sg24
I869220
sg25
I211844
sg26
I8783158
sg27
I2003885
sg28
I1624396
sg29
F0.9764486989552643
ssS'LEMAISTRE CHARLES'
p179
(dp180
g3
g5
sg4
g5
sg6
g5
sg7
I00
sg8
I-25000
sg9
g5
sg11
g5
sg12
g5
sg13
g5
sg14
g5
sg15
g5
sg16
g5
sg17
g32
sg18
I112492
sg19
g5
sg20
I412878
sg21
g32
sg22
g5
sg23
g5
sg24
g5
sg25
g5
sg26
I888248
sg27
I87492
sg28
I412878
sg29
g32
ssS'DEFFNER JOSEPH M'
p181
(dp182
g3
I714
sg4
g5
sg6
I41626
sg7
I00
sg8
g5
sg9
S'joseph.deffner@enron.com'
p183
sg11
I335349
sg12
g5
sg13
I552
sg14
g5
sg15
I74
sg16
I25553
sg17
I671
sg18
g5
sg19
I600000
sg20
I159211
sg21
F0.4599040438656614
sg22
I115
sg23
I4
sg24
I141833
sg25
I206121
sg26
I2529599
sg27
I1208649
sg28
I17378
sg29
F0.9246556665155791
ssS'KISHKILL JOSEPH G'
p184
(dp185
g3
g5
sg4
g5
sg6
I116335
sg7
I00
sg8
I-51042
sg9
S'joe.kishkill@enron.com'
p186
sg11
g5
sg12
g5
sg13
g5
sg14
g5
sg15
g5
sg16
I465357
sg17
g32
sg18
g5
sg19
g5
sg20
I1034346
sg21
g32
sg22
g5
sg23
g5
sg24
I1034346
sg25
I174246
sg26
I3304238
sg27
I704896
sg28
g5
sg29
F0.9499074884346169
ssS'WHALLEY LAWRENCE G'
p187
(dp188
g3
I6019
sg4
g5
sg6
I57838
sg7
I00
sg8
g5
sg9
S'greg.whalley@enron.com'
p189
sg11
I808346
sg12
g5
sg13
I3920
sg14
g5
sg15
I556
sg16
I301026
sg17
I4130
sg18
g5
sg19
I3000000
sg20
I6079137
sg21
F0.38580102755721624
sg22
I186
sg23
I24
sg24
I2796177
sg25
I510364
sg26
I21003058
sg27
I4677574
sg28
I3282960
sg29
F0.9762769493388825
ssS'MCCONNELL MICHAEL S'
p190
(dp191
g3
I3329
sg4
g5
sg6
I81364
sg7
I00
sg8
g5
sg9
S'mike.mcconnell@enron.com'
p192
sg11
I554422
sg12
g5
sg13
I2189
sg14
g5
sg15
I2742
sg16
I540
sg17
I2475
sg18
g5
sg19
I1100000
sg20
I3101279
sg21
F0.2896091738825181
sg22
I92
sg23
I194
sg24
I1478269
sg25
I365038
sg26
I10040248
sg27
I2101364
sg28
I1623010
sg29
F0.9649180233969542
ssS'PIRO JIM'
p193
(dp194
g3
I58
sg4
g5
sg6
g5
sg7
I00
sg8
g5
sg9
S'jim.piro@enron.com'
p195
sg11
g5
sg12
g5
sg13
I3
sg14
g5
sg15
I16
sg16
g5
sg17
I4
sg18
g5
sg19
g5
sg20
I47304
sg21
F0.05128205128205128
sg22
I0
sg23
I1
sg24
I47304
sg25
g5
sg26
I94608
sg27
g5
sg28
g5
sg29
g32
ssS'DELAINEY DAVID W'
p196
(dp197
g3
I3093
sg4
g5
sg6
I86174
sg7
I01
sg8
g5
sg9
S'david.delainey@enron.com'
p198
sg11
I1294981
sg12
g5
sg13
I2097
sg14
g5
sg15
I3069
sg16
I1661
sg17
I2772
sg18
g5
sg19
I3000000
sg20
I3614261
sg21
F0.31027535258562794
sg22
I66
sg23
I609
sg24
I1323148
sg25
I365163
sg26
I16359317
sg27
I4747979
sg28
I2291113
sg29
F0.9781659579251493
ssS'SULLIVAN-SHAKLOVITZ COLLEEN'
p199
(dp200
g3
g5
sg4
I181993
sg6
g5
sg7
I00
sg8
g5
sg9
g5
sg11
I554422
sg12
g5
sg13
g5
sg14
g5
sg15
g5
sg16
I162
sg17
g32
sg18
g5
sg19
I100000
sg20
I1362375
sg21
g32
sg22
g5
sg23
g5
sg24
g5
sg25
I162779
sg26
I4560683
sg27
I999356
sg28
I1362375
sg29
F0.9655382005825388
ssS'WROBEL BRUCE'
p201
(dp202
g3
g5
sg4
g5
sg6
g5
sg7
I00
sg8
g5
sg9
g5
sg11
g5
sg12
g5
sg13
g5
sg14
g5
sg15
g5
sg16
g5
sg17
g32
sg18
g5
sg19
g5
sg20
I139130
sg21
g32
sg22
g5
sg23
g5
sg24
g5
sg25
g5
sg26
I278260
sg27
g5
sg28
I139130
sg29
g32
ssS'LINDHOLM TOD A'
p203
(dp204
g3
g5
sg4
I204075
sg6
I57727
sg7
I00
sg8
g5
sg9
S'tod.lindholm@enron.com'
p205
sg11
I175000
sg12
g5
sg13
g5
sg14
g5
sg15
g5
sg16
I2630
sg17
g32
sg18
g5
sg19
I200000
sg20
I3064208
sg21
g32
sg22
g5
sg23
g5
sg24
I514847
sg25
I236457
sg26
I7643737
sg27
I875889
sg28
I2549361
sg29
F0.9699935052360386
ssS'MEYER JEROME J'
p206
(dp207
g3
g5
sg4
g5
sg6
I2151
sg7
I00
sg8
I-38346
sg9
g5
sg11
g5
sg12
g5
sg13
g5
sg14
g5
sg15
g5
sg16
g5
sg17
g32
sg18
I38346
sg19
g5
sg20
g5
sg21
g32
sg22
g5
sg23
g5
sg24
g5
sg25
g5
sg26
I-34044
sg27
I2151
sg28
g5
sg29
g32
ssS'LAY KENNETH L'
p208
(dp209
g3
I4273
sg4
I202911
sg6
I99832
sg7
I01
sg8
I-300000
sg9
S'kenneth.lay@enron.com'
p210
sg11
I3600000
sg12
g5
sg13
I2411
sg14
I81525000
sg15
I36
sg16
I10359729
sg17
I2550
sg18
g5
sg19
I7000000
sg20
I49110078
sg21
F0.37177431112407056
sg22
I123
sg23
I16
sg24
I14761694
sg25
I1072321
sg26
I304267421
sg27
I103559793
sg28
I34348384
sg29
F0.9964881053708364
ssS'BUTTS ROBERT H'
p211
(dp212
g3
g5
sg4
g5
sg6
I9410
sg7
I00
sg8
I-75000
sg9
S'bob.butts@enron.com'
p213
sg11
I175000
sg12
g5
sg13
g5
sg14
g5
sg15
g5
sg16
I150656
sg17
g32
sg18
g5
sg19
I750000
sg20
I417619
sg21
g32
sg22
g5
sg23
g5
sg24
I417619
sg25
I261516
sg26
I3116886
sg27
I1271582
sg28
g5
sg29
F0.9225918052380978
ssS'OLSON CINDY K'
p214
(dp215
g3
I1184
sg4
I77716
sg6
I63791
sg7
I00
sg8
g5
sg9
S'cindy.olson@enron.com'
p216
sg11
I100000
sg12
g5
sg13
I856
sg14
g5
sg15
I52
sg16
I972
sg17
I891
sg18
g5
sg19
I750000
sg20
I2606763
sg21
F0.41889985895627646
sg22
I20
sg23
I15
sg24
I969729
sg25
I329078
sg26
I7527562
sg27
I1321557
sg28
I1637034
sg29
F0.9581146647930923
ssS'MCDONALD REBECCA'
p217
(dp218
g3
I894
sg4
g5
sg6
g5
sg7
I00
sg8
g5
sg9
S'rebecca.mcdonald@enron.com'
p219
sg11
g5
sg12
g5
sg13
I720
sg14
g5
sg15
I13
sg16
g5
sg17
I775
sg18
g5
sg19
g5
sg20
I1691366
sg21
F0.46076099881093935
sg22
I54
sg23
I1
sg24
I934065
sg25
g5
sg26
I3382732
sg27
g5
sg28
I757301
sg29
g32
ssS'CUMBERLAND MICHAEL S'
p220
(dp221
g3
g5
sg4
g5
sg6
I22344
sg7
I00
sg8
g5
sg9
g5
sg11
I275000
sg12
g5
sg13
g5
sg14
g5
sg15
g5
sg16
I713
sg17
g32
sg18
g5
sg19
I325000
sg20
I207940
sg21
g32
sg22
g5
sg23
g5
sg24
I207940
sg25
I184899
sg26
I1846893
sg27
I807956
sg28
g5
sg29
F0.9089970823785112
ssS'GAHN ROBERT S'
p222
(dp223
g3
g5
sg4
I73122
sg6
I50080
sg7
I00
sg8
I-1042
sg9
g5
sg11
g5
sg12
g5
sg13
g5
sg14
g5
sg15
g5
sg16
I76547
sg17
g32
sg18
g5
sg19
I509870
sg20
I318607
sg21
g32
sg22
g5
sg23
g5
sg24
I235370
sg25
I192008
sg26
I2246376
sg27
I900585
sg28
I83237
sg29
F0.9212560449871718
ssS'MCCLELLAN GEORGE'
p224
(dp225
g3
I1744
sg4
g5
sg6
I228763
sg7
I00
sg8
I-125000
sg9
S'george.mcclellan@enron.com'
p226
sg11
g5
sg12
g5
sg13
I1469
sg14
g5
sg15
I49
sg16
I51587
sg17
I1521
sg18
g5
sg19
I900000
sg20
I947861
sg21
F0.45896197948098977
sg22
I52
sg23
I0
sg24
I441096
sg25
I263413
sg26
I4269835
sg27
I1318763
sg28
I506765
sg29
F0.9418930973994805
ssS'HERMANN ROBERT J'
p227
(dp228
g3
g5
sg4
g5
sg6
I48357
sg7
I00
sg8
I-280000
sg9
S'robert.hermann@enron.com'
p229
sg11
I150000
sg12
g5
sg13
g5
sg14
g5
sg15
g5
sg16
I416441
sg17
g32
sg18
g5
sg19
I700000
sg20
I668132
sg21
g32
sg22
g5
sg23
g5
sg24
I480632
sg25
I262663
sg26
I3668523
sg27
I1297461
sg28
I187500
sg29
F0.9331847946141444
ssS'SCRIMSHAW MATTHEW'
p230
(dp231
g3
g5
sg4
g5
sg6
g5
sg7
I00
sg8
g5
sg9
S'matthew.scrimshaw@enron.com'
p232
sg11
g5
sg12
g5
sg13
g5
sg14
g5
sg15
g5
sg16
g5
sg17
g32
sg18
g5
sg19
g5
sg20
I759557
sg21
g32
sg22
g5
sg23
g5
sg24
g5
sg25
g5
sg26
I1519114
sg27
g5
sg28
I759557
sg29
g32
ssS'GATHMANN WILLIAM D'
p233
(dp234
g3
g5
sg4
g5
sg6
g5
sg7
I00
sg8
g5
sg9
g5
sg11
g5
sg12
I-72419
sg13
g5
sg14
g5
sg15
g5
sg16
g5
sg17
g32
sg18
g5
sg19
g5
sg20
I1945360
sg21
g32
sg22
g5
sg23
g5
sg24
I264013
sg25
g5
sg26
I3963139
sg27
g5
sg28
I1753766
sg29
g32
ssS'HAEDICKE MARK E'
p235
(dp236
g3
I4009
sg4
I2157527
sg6
I76169
sg7
I00
sg8
I-934484
sg9
S'mark.haedicke@enron.com'
p237
sg11
I983346
sg12
I-329825
sg13
I1847
sg14
g5
sg15
I1941
sg16
I52382
sg17
I2088
sg18
g5
sg19
I1150000
sg20
I803094
sg21
F0.2597661109728788
sg22
I180
sg23
I61
sg24
I524169
sg25
I374125
sg26
I9280018
sg27
I3859065
sg28
I608750
sg29
F0.9612472075460246
ssS'BOWEN JR RAYMOND M'
p238
(dp239
g3
I1858
sg4
g5
sg6
I65907
sg7
I01
sg8
I-833
sg9
S'raymond.bowen@enron.com'
p240
sg11
I974293
sg12
g5
sg13
I1593
sg14
g5
sg15
I27
sg16
I1621
sg17
I1748
sg18
g5
sg19
I1350000
sg20
I252055
sg21
F0.48114505917974126
sg22
I140
sg23
I15
sg24
I252055
sg25
I278601
sg26
I5564687
sg27
I2669589
sg28
g5
sg29
F0.952321193136467
ssS'GILLIS JOHN'
p241
(dp242
g3
g5
sg4
g5
sg6
g5
sg7
I00
sg8
g5
sg9
g5
sg11
g5
sg12
g5
sg13
g5
sg14
g5
sg15
g5
sg16
g5
sg17
g32
sg18
g5
sg19
g5
sg20
I85641
sg21
g32
sg22
g5
sg23
g5
sg24
I75838
sg25
g5
sg26
I171282
sg27
g5
sg28
I9803
sg29
g32
ssS'FITZGERALD JAY L'
p243
(dp244
g3
I936
sg4
g5
sg6
I23870
sg7
I00
sg8
g5
sg9
S'jay.fitzgerald@enron.com'
p245
sg11
I556416
sg12
g5
sg13
I723
sg14
g5
sg15
I16
sg16
I285414
sg17
I732
sg18
g5
sg19
I350000
sg20
I1621236
sg21
F0.4346793349168646
sg22
I1
sg23
I8
sg24
I956775
sg25
I199157
sg26
I5873029
sg27
I1414857
sg28
I664461
sg29
F0.9672017622648582
ssS'MORAN MICHAEL P'
p246
(dp247
g3
I672
sg4
g5
sg6
g5
sg7
I00
sg8
g5
sg9
S'michael.moran@enron.com'
p248
sg11
g5
sg12
g5
sg13
I127
sg14
g5
sg15
I19
sg16
g5
sg17
I127
sg18
g5
sg19
g5
sg20
I221141
sg21
F0.1552567237163814
sg22
I0
sg23
I0
sg24
I161602
sg25
g5
sg26
I442282
sg27
g5
sg28
I59539
sg29
g32
ssS'REDMOND BRIAN L'
p249
(dp250
g3
I1671
sg4
g5
sg6
I14689
sg7
I00
sg8
g5
sg9
S'brian.redmond@enron.com'
p251
sg11
g5
sg12
g5
sg13
I1063
sg14
g5
sg15
I221
sg16
g5
sg17
I1316
sg18
g5
sg19
g5
sg20
I7890324
sg21
F0.4102244389027431
sg22
I204
sg23
I49
sg24
I381285
sg25
I96840
sg26
I15906866
sg27
I111529
sg28
I7509039
sg29
F0.9939489015856702
ssS'BAZELIDES PHILIP J'
p252
(dp253
g3
g5
sg4
I684694
sg6
g5
sg7
I00
sg8
g5
sg9
g5
sg11
I93750
sg12
g5
sg13
g5
sg14
g5
sg15
g5
sg16
I874
sg17
g32
sg18
g5
sg19
g5
sg20
I1599641
sg21
g32
sg22
g5
sg23
g5
sg24
g5
sg25
I80818
sg26
I4838736
sg27
I860136
sg28
I1599641
sg29
F0.9835720880388751
ssS'BELDEN TIMOTHY N'
p254
(dp255
g3
I7991
sg4
I2144013
sg6
I17355
sg7
I01
sg8
I-2334434
sg9
S'tim.belden@enron.com'
p256
sg11
g5
sg12
g5
sg13
I5521
sg14
g5
sg15
I484
sg16
I210698
sg17
I5857
sg18
g5
sg19
I5249999
sg20
I1110705
sg21
F0.4086659224113871
sg22
I228
sg23
I108
sg24
I157569
sg25
I213999
sg26
I13010671
sg27
I5501630
sg28
I953136
sg29
F0.9838181973538849
ssS'DURAN WILLIAM D'
p257
(dp258
g3
I904
sg4
g5
sg6
I25785
sg7
I00
sg8
g5
sg9
S'w.duran@enron.com'
p259
sg11
I1105218
sg12
g5
sg13
I599
sg14
g5
sg15
I12
sg16
I1568
sg17
I708
sg18
g5
sg19
I750000
sg20
I1640910
sg21
F0.43596059113300495
sg22
I106
sg23
I3
sg24
I189041
sg25
I210692
sg26
I7257654
sg27
I2093263
sg28
I1451869
sg29
F0.9717886664597489
ssS'THORN TERENCE H'
p260
(dp261
g3
I266
sg4
I16586
sg6
I46145
sg7
I00
sg8
g5
sg9
S'terence.thorn@enron.com'
p262
sg11
I200000
sg12
g5
sg13
I73
sg14
g5
sg15
I41
sg16
I426629
sg17
I73
sg18
g5
sg19
g5
sg20
I4817796
sg21
F0.19210526315789472
sg22
I0
sg23
I0
sg24
I365320
sg25
I222093
sg26
I11236405
sg27
I911453
sg28
I4452476
sg29
F0.9806176167242862
ssS'FASTOW ANDREW S'
p263
(dp264
g3
g5
sg4
g5
sg6
I55921
sg7
I01
sg8
I-1386055
sg9
S'andrew.fastow@enron.com'
p265
sg11
I1736055
sg12
g5
sg13
g5
sg14
g5
sg15
g5
sg16
I277464
sg17
g32
sg18
g5
sg19
I1300000
sg20
I1794412
sg21
g32
sg22
g5
sg23
g5
sg24
I1794412
sg25
I440698
sg26
I7996292
sg27
I2424083
sg28
g5
sg29
F0.947765968668921
ssS'FOY JOE'
p266
(dp267
g3
I57
sg4
I181755
sg6
g5
sg7
I00
sg8
g5
sg9
S'tracy.foy@enron.com'
p268
sg11
g5
sg12
g5
sg13
I2
sg14
g5
sg15
I13
sg16
g5
sg17
I2
sg18
g5
sg19
g5
sg20
I343434
sg21
F0.027777777777777776
sg22
I0
sg23
I0
sg24
g5
sg25
g5
sg26
I1050378
sg27
I181755
sg28
I343434
sg29
g32
ssS'CALGER CHRISTOPHER F'
p269
(dp270
g3
I2598
sg4
g5
sg6
I35818
sg7
I01
sg8
I-262500
sg9
S'christopher.calger@enron.com'
p271
sg11
I375304
sg12
g5
sg13
I2188
sg14
g5
sg15
I144
sg16
I486
sg17
I2412
sg18
g5
sg19
I1250000
sg20
I126027
sg21
F0.4679860302677532
sg22
I199
sg23
I25
sg24
I126027
sg25
I240189
sg26
I3290459
sg27
I1639297
sg28
g5
sg29
F0.9319702785437687
ssS'RICE KENNETH D'
p272
(dp273
g3
I905
sg4
g5
sg6
I46950
sg7
I01
sg8
I-3504386
sg9
S'ken.rice@enron.com'
p274
sg11
I1617011
sg12
g5
sg13
I864
sg14
g5
sg15
I18
sg16
I174839
sg17
I910
sg18
g5
sg19
I1750000
sg20
I22542539
sg21
F0.49645390070921985
sg22
I42
sg23
I4
sg24
I2748364
sg25
I420636
sg26
I45674542
sg27
I505050
sg28
I19794175
sg29
F0.990874620334474
ssS'KAMINSKI WINCENTY J'
p275
(dp276
g3
I4607
sg4
g5
sg6
I83585
sg7
I00
sg8
g5
sg9
S'vince.kaminski@enron.com'
p277
sg11
I323466
sg12
g5
sg13
I583
sg14
g5
sg15
I14368
sg16
I4669
sg17
I795
sg18
g5
sg19
I400000
sg20
I976037
sg21
F0.04021244309559939
sg22
I41
sg23
I171
sg24
I126027
sg25
I275101
sg26
I3850615
sg27
I1086821
sg28
I850010
sg29
F0.9333204224430378
ssS'COX DAVID'
p278
(dp279
g3
I102
sg4
g5
sg6
I27861
sg7
I00
sg8
I-41250
sg9
S'chip.cox@enron.com'
p280
sg11
g5
sg12
g5
sg13
I71
sg14
g5
sg15
I33
sg16
I494
sg17
I75
sg18
g5
sg19
I800000
sg20
I495633
sg21
F0.35714285714285715
sg22
I0
sg23
I4
sg24
I378082
sg25
I314288
sg26
I2879764
sg27
I1101393
sg28
I117551
sg29
F0.9016021029087817
ssS'OVERDYKE JR JERE C'
p281
(dp282
g3
g5
sg4
g5
sg6
I18834
sg7
I00
sg8
g5
sg9
S'jere.overdyke@enron.com'
p283
sg11
I135836
sg12
g5
sg13
g5
sg14
g5
sg15
g5
sg16
I176
sg17
g32
sg18
g5
sg19
g5
sg20
I7307594
sg21
g32
sg22
g5
sg23
g5
sg24
I2041016
sg25
I94941
sg26
I15019821
sg27
I249787
sg28
I5266578
sg29
F0.993718657296754
ssS'PEREIRA PAULO V. FERRAZ'
p284
(dp285
g3
g5
sg4
g5
sg6
I27942
sg7
I00
sg8
I-101250
sg9
g5
sg11
g5
sg12
g5
sg13
g5
sg14
g5
sg15
g5
sg16
g5
sg17
g32
sg18
I101250
sg19
g5
sg20
g5
sg21
g32
sg22
g5
sg23
g5
sg24
g5
sg25
g5
sg26
I-45366
sg27
I27942
sg28
g5
sg29
g32
ssS'STABLER FRANK'
p286
(dp287
g3
g5
sg4
g5
sg6
I16514
sg7
I00
sg8
g5
sg9
S'frank.stabler@enron.com'
p288
sg11
g5
sg12
g5
sg13
g5
sg14
g5
sg15
g5
sg16
I356071
sg17
g32
sg18
g5
sg19
I500000
sg20
I511734
sg21
g32
sg22
g5
sg23
g5
sg24
I511734
sg25
I239502
sg26
I3008140
sg27
I1112087
sg28
g5
sg29
F0.9262535710524744
ssS'SKILLING JEFFREY K'
p289
(dp290
g3
I3627
sg4
g5
sg6
I29336
sg7
I01
sg8
g5
sg9
S'jeff.skilling@enron.com'
p291
sg11
I1920000
sg12
g5
sg13
I2042
sg14
g5
sg15
I108
sg16
I22122
sg17
I2160
sg18
g5
sg19
I5600000
sg20
I26093672
sg21
F0.366412213740458
sg22
I88
sg23
I30
sg24
I6843672
sg25
I1111258
sg26
I68441518
sg27
I8682716
sg28
I19250000
sg29
F0.9840228088092415
ssS'BLAKE JR. NORMAN P'
p292
(dp293
g3
g5
sg4
g5
sg6
I1279
sg7
I00
sg8
I-113784
sg9
g5
sg11
g5
sg12
g5
sg13
g5
sg14
g5
sg15
g5
sg16
g5
sg17
g32
sg18
I113784
sg19
g5
sg20
g5
sg21
g32
sg22
g5
sg23
g5
sg24
g5
sg25
g5
sg26
I-111226
sg27
I1279
sg28
g5
sg29
g32
ssS'SHERRICK JEFFREY B'
p294
(dp295
g3
I613
sg4
g5
sg6
g5
sg7
I00
sg8
g5
sg9
S'jeffrey.sherrick@enron.com'
p296
sg11
g5
sg12
g5
sg13
I583
sg14
g5
sg15
I25
sg16
g5
sg17
I640
sg18
g5
sg19
g5
sg20
I1832468
sg21
F0.5007824726134585
sg22
I39
sg23
I18
sg24
I405999
sg25
g5
sg26
I3664936
sg27
g5
sg28
I1426469
sg29
g32
ssS'PRENTICE JAMES'
p297
(dp298
g3
g5
sg4
I564348
sg6
g5
sg7
I00
sg8
g5
sg9
S'james.prentice@enron.com'
p299
sg11
g5
sg12
g5
sg13
g5
sg14
g5
sg15
g5
sg16
g5
sg17
g32
sg18
g5
sg19
g5
sg20
I1095040
sg21
g32
sg22
g5
sg23
g5
sg24
I208809
sg25
g5
sg26
I3318776
sg27
I564348
sg28
I886231
sg29
g32
ssS'GRAY RODNEY'
p300
(dp301
g3
g5
sg4
I93585
sg6
g5
sg7
I00
sg8
g5
sg9
g5
sg11
I365625
sg12
g5
sg13
g5
sg14
g5
sg15
g5
sg16
I680833
sg17
g32
sg18
g5
sg19
g5
sg20
g5
sg21
g32
sg22
g5
sg23
g5
sg24
g5
sg25
I6615
sg26
I2286701
sg27
I1146658
sg28
g5
sg29
F0.9971155305243586
ssS'PICKERING MARK R'
p302
(dp303
g3
I898
sg4
g5
sg6
I31653
sg7
I00
sg8
g5
sg9
S'mark.pickering@enron.com'
p304
sg11
g5
sg12
g5
sg13
I728
sg14
I400000
sg15
I67
sg16
g5
sg17
I735
sg18
g5
sg19
I300000
sg20
I28798
sg21
F0.4323529411764706
sg22
I7
sg23
I0
sg24
g5
sg25
I655037
sg26
I2175939
sg27
I1386690
sg28
I28798
sg29
F0.768617960731564
ssS'NOLES JAMES L'
p305
(dp306
g3
g5
sg4
I774401
sg6
g5
sg7
I00
sg8
g5
sg9
g5
sg11
g5
sg12
I-94556
sg13
g5
sg14
g5
sg15
g5
sg16
g5
sg17
g32
sg18
g5
sg19
g5
sg20
I368705
sg21
g32
sg22
g5
sg23
g5
sg24
I463261
sg25
g5
sg26
I2380768
sg27
I774401
sg28
g5
sg29
g32
ssS'KEAN STEVEN J'
p307
(dp308
g3
I12754
sg4
g5
sg6
I41953
sg7
I00
sg8
g5
sg9
S'steven.kean@enron.com'
p309
sg11
I300000
sg12
g5
sg13
I3639
sg14
g5
sg15
I6759
sg16
I1231
sg17
I4166
sg18
g5
sg19
I1000000
sg20
I6153642
sg21
F0.1759364838042147
sg22
I140
sg23
I387
sg24
I4131594
sg25
I404338
sg26
I15397990
sg27
I1747522
sg28
I2022048
sg29
F0.9744127574114396
ssS'FOWLER PEGGY'
p310
(dp311
g3
I517
sg4
g5
sg6
g5
sg7
I00
sg8
g5
sg9
S'kulvinder.fowler@enron.com'
p312
sg11
g5
sg12
g5
sg13
I10
sg14
g5
sg15
I36
sg16
g5
sg17
I10
sg18
g5
sg19
g5
sg20
I1884748
sg21
F0.017761989342806393
sg22
I0
sg23
I0
sg24
I560170
sg25
g5
sg26
I3769496
sg27
g5
sg28
I1324578
sg29
g32
ssS'WASAFF GEORGE'
p313
(dp314
g3
I400
sg4
I831299
sg6
g5
sg7
I00
sg8
I-583325
sg9
S'george.wasaff@enron.com'
p315
sg11
I200000
sg12
g5
sg13
I337
sg14
g5
sg15
I30
sg16
I1425
sg17
I366
sg18
g5
sg19
I325000
sg20
I2056427
sg21
F0.45979899497487436
sg22
I22
sg23
I7
sg24
I388167
sg25
I259996
sg26
I5921648
sg27
I1034395
sg28
I1668260
sg29
F0.957940638445048
ssS'WHITE JR THOMAS E'
p316
(dp317
g3
g5
sg4
g5
sg6
I81353
sg7
I00
sg8
g5
sg9
S'thomas.white@enron.com'
p318
sg11
g5
sg12
g5
sg13
g5
sg14
g5
sg15
g5
sg16
I1085463
sg17
g32
sg18
g5
sg19
I450000
sg20
I15144123
sg21
g32
sg22
g5
sg23
g5
sg24
I13847074
sg25
I317543
sg26
I33839421
sg27
I1934359
sg28
I1297049
sg29
F0.9907034184888329
ssS'CHRISTODOULOU DIOMEDES'
p319
(dp320
g3
g5
sg4
g5
sg6
g5
sg7
I00
sg8
g5
sg9
S'diomedes.christodoulou@enron.com'
p321
sg11
g5
sg12
g5
sg13
g5
sg14
g5
sg15
g5
sg16
g5
sg17
g32
sg18
g5
sg19
g5
sg20
I6077885
sg21
g32
sg22
g5
sg23
g5
sg24
I950730
sg25
g5
sg26
I12155770
sg27
g5
sg28
I5127155
sg29
g32
ssS'ALLEN PHILLIP K'
p322
(dp323
g3
I2902
sg4
I2869717
sg6
I13868
sg7
I00
sg8
I-3081055
sg9
S'phillip.allen@enron.com'
p324
sg11
I304805
sg12
I-126027
sg13
I1407
sg14
g5
sg15
I2195
sg16
I152
sg17
I1519
sg18
g5
sg19
I4175000
sg20
I1729541
sg21
F0.22959492140266022
sg22
I47
sg23
I65
sg24
I126027
sg25
I201955
sg26
I12352038
sg27
I4484442
sg28
I1729541
sg29
F0.9839130864578306
ssS'SHARP VICTORIA T'
p325
(dp326
g3
I3136
sg4
I187469
sg6
I116337
sg7
I00
sg8
g5
sg9
S'vicki.sharp@enron.com'
p327
sg11
I422158
sg12
g5
sg13
I2477
sg14
g5
sg15
I136
sg16
I2401
sg17
I2507
sg18
g5
sg19
I600000
sg20
I494136
sg21
F0.4338120782142239
sg22
I24
sg23
I6
sg24
I213063
sg25
I248146
sg26
I3893148
sg27
I1576511
sg28
I281073
sg29
F0.9400800812499668
ssS'JAEDICKE ROBERT'
p328
(dp329
g3
g5
sg4
g5
sg6
g5
sg7
I00
sg8
I-25000
sg9
g5
sg11
g5
sg12
I-44093
sg13
g5
sg14
g5
sg15
g5
sg16
g5
sg17
g32
sg18
I108750
sg19
g5
sg20
I431750
sg21
g32
sg22
g5
sg23
g5
sg24
I44093
sg25
g5
sg26
I966343
sg27
I83750
sg28
I431750
sg29
g32
ssS'WINOKUR JR. HERBERT S'
p330
(dp331
g3
g5
sg4
g5
sg6
I1413
sg7
I00
sg8
I-25000
sg9
g5
sg11
g5
sg12
g5
sg13
g5
sg14
g5
sg15
g5
sg16
g5
sg17
g32
sg18
I108579
sg19
g5
sg20
g5
sg21
g32
sg22
g5
sg23
g5
sg24
g5
sg25
g5
sg26
I61405
sg27
I84992
sg28
g5
sg29
g32
ssS'BROWN MICHAEL'
p332
(dp333
g3
I1486
sg4
g5
sg6
I49288
sg7
I00
sg8
g5
sg9
S'michael.brown@enron.com'
p334
sg11
g5
sg12
g5
sg13
I761
sg14
g5
sg15
I41
sg16
g5
sg17
I775
sg18
g5
sg19
g5
sg20
g5
sg21
F0.3366637706342311
sg22
I13
sg23
I1
sg24
g5
sg25
g5
sg26
I98576
sg27
I49288
sg28
g5
sg29
g32
ssS'BADUM JAMES P'
p335
(dp336
g3
g5
sg4
I178980
sg6
I3486
sg7
I00
sg8
g5
sg9
g5
sg11
g5
sg12
g5
sg13
g5
sg14
g5
sg15
g5
sg16
g5
sg17
g32
sg18
g5
sg19
g5
sg20
I257817
sg21
g32
sg22
g5
sg23
g5
sg24
g5
sg25
g5
sg26
I880566
sg27
I182466
sg28
I257817
sg29
g32
ssS'HUGHES JAMES A'
p337
(dp338
g3
I719
sg4
g5
sg6
g5
sg7
I00
sg8
g5
sg9
S'james.hughes@enron.com'
p339
sg11
g5
sg12
g5
sg13
I589
sg14
g5
sg15
I34
sg16
g5
sg17
I629
sg18
g5
sg19
g5
sg20
I1118394
sg21
F0.455137481910275
sg22
I35
sg23
I5
sg24
I363428
sg25
g5
sg26
I2236788
sg27
g5
sg28
I754966
sg29
g32
ssS'REYNOLDS LAWRENCE'
p340
(dp341
g3
g5
sg4
I51365
sg6
I8409
sg7
I00
sg8
I-200000
sg9
g5
sg11
I156250
sg12
I-140264
sg13
g5
sg14
g5
sg15
g5
sg16
I202052
sg17
g32
sg18
g5
sg19
I100000
sg20
I4221891
sg21
g32
sg22
g5
sg23
g5
sg24
I201483
sg25
I76399
sg26
I9296597
sg27
I394475
sg28
I4160672
sg29
F0.9918490309821961
ssS'DIMICHELE RICHARD G'
p342
(dp343
g3
g5
sg4
g5
sg6
I35812
sg7
I00
sg8
g5
sg9
S'richard.dimichele@enron.com'
p344
sg11
I694862
sg12
g5
sg13
g5
sg14
g5
sg15
g5
sg16
I374689
sg17
g32
sg18
g5
sg19
I1000000
sg20
I8317782
sg21
g32
sg22
g5
sg23
g5
sg24
I126027
sg25
I262788
sg26
I21109078
sg27
I2368151
sg28
I8191755
sg29
F0.9877040217265072
ssS'BHATNAGAR SANJAY'
p345
(dp346
g3
I523
sg4
g5
sg6
g5
sg7
I00
sg8
g5
sg9
S'sanjay.bhatnagar@enron.com'
p347
sg11
g5
sg12
I-2604490
sg13
I463
sg14
g5
sg15
I29
sg16
I137864
sg17
I464
sg18
I137864
sg19
g5
sS'total_stock_value'
p348
S'NaN'
p349
sg21
F0.4566929133858268
sg22
I0
sg23
I1
sg24
I-2604490
sg25
g5
sg26
I15594154
sg27
I15456290
sg28
I2604490
sg29
g32
ssS'CARTER REBECCA C'
p350
(dp351
g3
I312
sg4
g5
sg6
g5
sg7
I00
sg8
I-159792
sg9
S'rebecca.carter@enron.com'
p352
sg11
I75000
sg12
I-307301
sg13
I196
sg14
g5
sg15
I15
sg16
I540
sg17
I232
sg18
g5
sg19
I300000
sg20
g5
sg21
F0.4150268336314848
sg22
I29
sg23
I7
sg24
I307301
sg25
I261809
sg26
I1000606
sg27
I477557
sg28
g5
sg29
F0.7926125719355362
ssS'BUCHANAN HAROLD G'
p353
(dp354
g3
I1088
sg4
g5
sg6
I600
sg7
I00
sg8
g5
sg9
S'john.buchanan@enron.com'
p355
sg11
I304805
sg12
g5
sg13
I23
sg14
g5
sg15
I125
sg16
I1215
sg17
I23
sg18
g5
sg19
I500000
sg20
I1014505
sg21
F0.0186084142394822
sg22
I0
sg23
I0
sg24
I189041
sg25
I248017
sg26
I3890267
sg27
I1054637
sg28
I825464
sg29
F0.9400676705610345
ssS'YEAP SOON'
p356
(dp357
g3
g5
sg4
g5
sg6
I55097
sg7
I00
sg8
g5
sg9
g5
sg11
g5
sg12
g5
sg13
g5
sg14
g5
sg15
g5
sg16
g5
sg17
g32
sg18
g5
sg19
g5
sg20
I192758
sg21
g32
sg22
g5
sg23
g5
sg24
g5
sg25
g5
sg26
I495710
sg27
I55097
sg28
I192758
sg29
g32
ssS'MURRAY JULIA H'
p358
(dp359
g3
I2192
sg4
g5
sg6
I57580
sg7
I00
sg8
g5
sg9
S'julia.murray@enron.com'
p360
sg11
I125000
sg12
g5
sg13
I395
sg14
g5
sg15
I45
sg16
I330
sg17
I408
sg18
g5
sg19
I400000
sg20
I597461
sg21
F0.15425330812854443
sg22
I11
sg23
I2
sg24
I196983
sg25
I229284
sg26
I2590026
sg27
I812194
sg28
I400478
sg29
F0.9186737180373922
ssS'GARLAND C KEVIN'
p361
(dp362
g3
I209
sg4
g5
sg6
I48405
sg7
I00
sg8
g5
sg9
S'kevin.garland@enron.com'
p363
sg11
I375304
sg12
g5
sg13
I178
sg14
g5
sg15
I44
sg16
I60814
sg17
I215
sg18
g5
sg19
I850000
sg20
I896153
sg21
F0.4594017094017094
sg22
I10
sg23
I27
sg24
I259907
sg25
I231946
sg26
I4693298
sg27
I1566469
sg28
I636246
sg29
F0.9529066986325957
ssS'DODSON KEITH'
p364
(dp365
g3
I176
sg4
g5
sg6
I28164
sg7
I00
sg8
g5
sg9
S'keith.dodson@enron.com'
p366
sg11
g5
sg12
g5
sg13
I114
sg14
g5
sg15
I14
sg16
I774
sg17
I127
sg18
g5
sg19
I70000
sg20
g5
sg21
F0.40063091482649843
sg22
I10
sg23
I3
sg24
g5
sg25
I221003
sg26
I418879
sg27
I319941
sg28
g5
sg29
F0.654619132902629
ssS'YEAGER F SCOTT'
p367
(dp368
g3
g5
sg4
g5
sg6
I53947
sg7
I01
sg8
g5
sg9
S'scott.yeager@enron.com'
p369
sg11
g5
sg12
g5
sg13
g5
sg14
g5
sg15
g5
sg16
I147950
sg17
g32
sg18
g5
sg19
g5
sg20
I11884758
sg21
g32
sg22
g5
sg23
g5
sg24
I3576206
sg25
I158403
sg26
I24331713
sg27
I360300
sg28
I8308552
sg29
F0.9935319620372561
ssS'HIRKO JOSEPH'
p370
(dp371
g3
g5
sg4
I10259
sg6
I77978
sg7
I01
sg8
g5
sg9
S'joe.hirko@enron.com'
p372
sg11
g5
sg12
g5
sg13
g5
sg14
g5
sg15
g5
sg16
I2856
sg17
g32
sg18
g5
sg19
g5
sg20
I30766064
sg21
g32
sg22
g5
sg23
g5
sg24
g5
sg25
g5
sg26
I61714314
sg27
I91093
sg28
I30766064
sg29
g32
ssS'DIETRICH JANET R'
p373
(dp374
g3
I2572
sg4
g5
sg6
I3475
sg7
I00
sg8
g5
sg9
S'janet.dietrich@enron.com'
p375
sg11
I556416
sg12
g5
sg13
I1902
sg14
g5
sg15
I63
sg16
I473
sg17
I2221
sg18
g5
sg19
I600000
sg20
I1865087
sg21
F0.45737232289950575
sg22
I305
sg23
I14
sg24
I315068
sg25
I250100
sg26
I6301002
sg27
I1410464
sg28
I1550019
sg29
F0.9618232169183139
ssS'DERRICK JR. JAMES V'
p376
(dp377
g3
I2181
sg4
g5
sg6
I51124
sg7
I00
sg8
I-1284000
sg9
S'james.derrick@enron.com'
p378
sg11
I484000
sg12
I-1787380
sg13
I1401
sg14
g5
sg15
I909
sg16
I7482
sg17
I1485
sg18
g5
sg19
I800000
sg20
I8831913
sg21
F0.32459016393442625
sg22
I64
sg23
I20
sg24
I1787380
sg25
I492375
sg26
I20060793
sg27
I550981
sg28
I8831913
sg29
F0.9760438390811577
ssS'FREVERT MARK A'
p379
(dp380
g3
I3275
sg4
I6426990
sg6
I86987
sg7
I00
sg8
I-3367011
sg9
S'mark.frevert@enron.com'
p381
sg11
I1617011
sg12
g5
sg13
I2979
sg14
I2000000
sg15
I21
sg16
I7427621
sg17
I3227
sg18
g5
sg19
I2000000
sg20
I14622185
sg21
F0.4947110225356431
sg22
I242
sg23
I6
sg24
I4188667
sg25
I1060932
sg26
I62688498
sg27
I17252530
sg28
I10433518
sg29
F0.9833577806107443
ssS'PAI LOU L'
p382
(dp383
g3
g5
sg4
g5
sg6
I32047
sg7
I00
sg8
g5
sg9
S'lou.pai@enron.com'
p384
sg11
g5
sg12
g5
sg13
g5
sg14
g5
sg15
g5
sg16
I1829457
sg17
g32
sg18
g5
sg19
I1000000
sg20
I23817930
sg21
g32
sg22
g5
sg23
g5
sg24
I8453763
sg25
I261879
sg26
I53620747
sg27
I3123383
sg28
I15364167
sg29
F0.9951398248481802
ssS'BAY FRANKLIN R'
p385
(dp386
g3
g5
sg4
I260455
sg6
I129142
sg7
I00
sg8
I-201641
sg9
S'frank.bay@enron.com'
p387
sg11
g5
sg12
I-82782
sg13
g5
sg14
g5
sg15
g5
sg16
I69
sg17
g32
sg18
g5
sg19
I400000
sg20
I63014
sg21
g32
sg22
g5
sg23
g5
sg24
I145796
sg25
I239671
sg26
I1624531
sg27
I827696
sg28
g5
sg29
F0.8714350698046671
ssS'HAYSLETT RODERICK J'
p388
(dp389
g3
I2649
sg4
g5
sg6
g5
sg7
I00
sg8
g5
sg9
S'rod.hayslett@enron.com'
p390
sg11
g5
sg12
g5
sg13
I571
sg14
g5
sg15
I1061
sg16
g5
sg17
I644
sg18
g5
sg19
g5
sg20
I346663
sg21
F0.14790996784565916
sg22
I35
sg23
I38
sg24
I346663
sg25
g5
sg26
I693326
sg27
g5
sg28
g5
sg29
g32
ssS'FUGH JOHN L'
p391
(dp392
g3
g5
sg4
I50591
sg6
g5
sg7
I00
sg8
g5
sg9
g5
sg11
g5
sg12
g5
sg13
g5
sg14
g5
sg15
g5
sg16
g5
sg17
g32
sg18
g5
sg19
g5
sg20
I176378
sg21
g32
sg22
g5
sg23
g5
sg24
g5
sg25
g5
sg26
I453938
sg27
I50591
sg28
I176378
sg29
g32
ssS'FALLON JAMES B'
p393
(dp394
g3
I1755
sg4
g5
sg6
I95924
sg7
I00
sg8
g5
sg9
S'jim.fallon@enron.com'
p395
sg11
I374347
sg12
g5
sg13
I1604
sg14
g5
sg15
I75
sg16
I401481
sg17
I1683
sg18
g5
sg19
I2500000
sg20
I2332399
sg21
F0.47907771135781385
sg22
I42
sg23
I37
sg24
I1392142
sg25
I304588
sg26
I11712890
sg27
I3676340
sg28
I940257
sg29
F0.9746545822675939
ssS'KOENIG MARK E'
p396
(dp397
g3
I2374
sg4
g5
sg6
I127017
sg7
I01
sg8
g5
sg9
S'mark.koenig@enron.com'
p398
sg11
I300000
sg12
g5
sg13
I2271
sg14
g5
sg15
I61
sg16
I150458
sg17
I2339
sg18
g5
sg19
I700000
sg20
I1920055
sg21
F0.4899455383326351
sg22
I53
sg23
I15
sg24
I1248318
sg25
I309946
sg26
I6705006
sg27
I1587421
sg28
I671737
sg29
F0.9558163762203933
ssS'SAVAGE FRANK'
p399
(dp400
g3
g5
sg4
g5
sg6
g5
sg7
I00
sg8
I-121284
sg9
g5
sg11
g5
sg12
g5
sg13
g5
sg14
g5
sg15
g5
sg16
g5
sg17
g32
sg18
I125034
sg19
g5
sg20
g5
sg21
g32
sg22
g5
sg23
g5
sg24
g5
sg25
g5
sg26
I-117534
sg27
I3750
sg28
g5
sg29
g32
ssS'IZZO LAWRENCE L'
p401
(dp402
g3
I496
sg4
g5
sg6
I28093
sg7
I00
sg8
g5
sg9
S'larry.izzo@enron.com'
p403
sg11
I312500
sg12
g5
sg13
I437
sg14
g5
sg15
I19
sg16
I1553729
sg17
I470
sg18
g5
sg19
g5
sg20
I5819980
sg21
F0.47715736040609136
sg22
I28
sg23
I5
sg24
I3654808
sg25
I85274
sg26
I15513878
sg27
I1979596
sg28
I2165172
sg29
F0.9945334207910789
ssS'TILNEY ELIZABETH A'
p404
(dp405
g3
I460
sg4
g5
sg6
g5
sg7
I00
sg8
I-575000
sg9
S'elizabeth.tilney@enron.com'
p406
sg11
I275000
sg12
g5
sg13
I379
sg14
g5
sg15
I19
sg16
I152055
sg17
I400
sg18
g5
sg19
I300000
sg20
I1168042
sg21
F0.4550625711035267
sg22
I10
sg23
I11
sg24
I576792
sg25
I247338
sg26
I2887532
sg27
I399393
sg28
I591250
sg29
F0.9211010344926583
ssS'MARTIN AMANDA K'
p407
(dp408
g3
I1522
sg4
I85430
sg6
I8211
sg7
I00
sg8
g5
sg9
S'a..martin@enron.com'
p409
sg11
I5145434
sg12
g5
sg13
I477
sg14
g5
sg15
I230
sg16
I2818454
sg17
I485
sg18
g5
sg19
g5
sg20
I2070306
sg21
F0.2168082253017434
sg22
I8
sg23
I0
sg24
g5
sg25
I349487
sg26
I20605157
sg27
I8407016
sg28
I2070306
sg29
F0.9833217400400599
ssS'BUY RICHARD B'
p410
(dp411
g3
I3523
sg4
I649584
sg6
g5
sg7
I00
sg8
I-694862
sg9
S'rick.buy@enron.com'
p412
sg11
I769862
sg12
g5
sg13
I2333
sg14
g5
sg15
I1053
sg16
I400572
sg17
I2560
sg18
g5
sg19
I900000
sg20
I3444470
sg21
F0.35874439461883406
sg22
I156
sg23
I71
sg24
I901657
sg25
I330546
sg26
I11269798
sg27
I2355702
sg28
I2542813
sg29
F0.9715055001817188
ssS'GRAMM WENDY L'
p413
(dp414
g3
g5
sg4
g5
sg6
g5
sg7
I00
sg8
g5
sg9
g5
sg11
g5
sg12
g5
sg13
g5
sg14
g5
sg15
g5
sg16
g5
sg17
g32
sg18
I119292
sg19
g5
sg20
g5
sg21
g32
sg22
g5
sg23
g5
sg24
g5
sg25
g5
sg26
I119292
sg27
I119292
sg28
g5
sg29
g32
ssS'CAUSEY RICHARD A'
p415
(dp416
g3
I1892
sg4
g5
sg6
I30674
sg7
I01
sg8
I-235000
sg9
S'richard.causey@enron.com'
p417
sg11
I350000
sg12
g5
sg13
I1585
sg14
g5
sg15
I49
sg16
I307895
sg17
I1655
sg18
g5
sg19
I1000000
sg20
I2502063
sg21
F0.46023359288097887
sg22
I58
sg23
I12
sg24
I2502063
sg25
I415189
sg26
I8326453
sg27
I1868758
sg28
g5
sg29
F0.9525044608324157
ssS'TAYLOR MITCHELL S'
p418
(dp419
g3
I533
sg4
I227449
sg6
g5
sg7
I00
sg8
g5
sg9
S'mitchell.taylor@enron.com'
p420
sg11
g5
sg12
g5
sg13
I300
sg14
g5
sg15
I29
sg16
g5
sg17
I300
sg18
g5
sg19
I600000
sg20
I3745048
sg21
F0.3480278422273782
sg22
I0
sg23
I0
sg24
I563798
sg25
I265214
sg26
I9410208
sg27
I1092663
sg28
I3181250
sg29
F0.9725888958641804
ssS'DONAHUE JR JEFFREY M'
p421
(dp422
g3
I865
sg4
g5
sg6
I96268
sg7
I00
sg8
I-300000
sg9
S'jeff.donahue@enron.com'
p423
sg11
g5
sg12
g5
sg13
I772
sg14
g5
sg15
I22
sg16
I891
sg17
I971
sg18
g5
sg19
I800000
sg20
I1080988
sg21
F0.5226049515608181
sg22
I188
sg23
I11
sg24
I315068
sg25
I278601
sg26
I3634895
sg27
I875760
sg28
I765920
sg29
F0.9288101993716105
ssS'GLISAN JR BEN F'
p424
(dp425
g3
I873
sg4
g5
sg6
I125978
sg7
I01
sg8
g5
sg9
S'ben.glisan@enron.com'
p426
sg11
I71023
sg12
g5
sg13
I874
sg14
g5
sg15
I16
sg16
I200308
sg17
I932
sg18
g5
sg19
I600000
sg20
I778546
sg21
F0.5118066996155958
sg22
I52
sg23
I6
sg24
I393818
sg25
I274975
sg26
I3826685
sg27
I1272284
sg28
I384728
sg29
F0.9329600698253878
ss.